target datalayout = "e-m:e-p270:32:32-p271:32:32-p272:64:64-i64:64-i128:128-f80:128-n8:16:32:64-S128"
target triple = "x86_64-pc-linux-gnu"

@map_StringForGamepadType = internal global [12 x ptr] [ptr @.str.24, ptr @.str.25, ptr @.str.26, ptr @.str.27, ptr @.str.28, ptr @.str.29, ptr @.str.30, ptr @.str.31, ptr @.str.32, ptr @.str.33, ptr @.str.34, ptr @.str.35], align 16

; Function Attrs: nounwind uwtable
define hidden ptr @SDL_GetGamepadStringForType_REAL(i32 noundef %0) #0 {
  %2 = alloca ptr, align 8
  %3 = alloca i32, align 4
  store i32 %0, ptr %3, align 4
  %4 = load i32, ptr %3, align 4
  %5 = icmp uge i32 %4, 1
  br i1 %5, label %6, label %14

6:                                                ; preds = %1
  %7 = load i32, ptr %3, align 4
  %8 = icmp ult i32 %7, 12
  br i1 %8, label %9, label %14

9:                                                ; preds = %6
  %10 = load i32, ptr %3, align 4
  %11 = zext i32 %10 to i64
  %12 = getelementptr inbounds nuw [12 x ptr], ptr @map_StringForGamepadType, i64 0, i64 %11
  %13 = load ptr, ptr %12, align 8
  store ptr %13, ptr %2, align 8
  br label %15

14:                                               ; preds = %6, %1
  store ptr null, ptr %2, align 8
  br label %15

15:                                               ; preds = %14, %9
  %16 = load ptr, ptr %2, align 8
  ret ptr %16
}