; Function Attrs: mustprogress nofree norecurse nosync nounwind willreturn memory(none) uwtable
define hidden ptr @SDL_GetGamepadStringForType_REAL(i32 noundef %0) local_unnamed_addr #3 {
  %2 = add i32 %0, -1
  %or.cond = icmp ult i32 %2, 11
  br i1 %or.cond, label %3, label %7

3:                                                ; preds = %1
  %4 = zext nneg i32 %0 to i64
  %5 = getelementptr inbounds nuw [12 x ptr], ptr @map_StringForGamepadType, i64 0, i64 %4
  %6 = load ptr, ptr %5, align 8
  br label %7

7:                                                ; preds = %1, %3
  %.0 = phi ptr [ %6, %3 ], [ null, %1 ]
  ret ptr %.0
}